target datalayout = "e-m:e-p270:32:32-p271:32:32-p272:64:64-i64:64-i128:128-f80:128-n8:16:32:64-S128"
target triple = "x86_64-pc-linux-gnu"

%struct.LLSModel = type { [36 x [36 x double]], [32 x [32 x double]], [32 x double], i32, ptr, ptr, [8 x i8] }

; Function Attrs: nounwind uwtable
define internal double @evaluate_lls(ptr noundef %0, ptr noundef %1, i32 noundef %2) #0 {
  %4 = alloca ptr, align 8
  %5 = alloca ptr, align 8
  %6 = alloca i32, align 4
  store ptr %0, ptr %4, align 8, !tbaa !4
  store ptr %1, ptr %5, align 8, !tbaa !13
  store i32 %2, ptr %6, align 4, !tbaa !18
  %7 = load ptr, ptr %4, align 8, !tbaa !4
  %8 = getelementptr inbounds nuw %struct.LLSModel, ptr %7, i32 0, i32 1
  %9 = load i32, ptr %6, align 4, !tbaa !18
  %10 = sext i32 %9 to i64
  %11 = getelementptr inbounds [32 x [32 x double]], ptr %8, i64 0, i64 %10
  %12 = getelementptr inbounds [32 x double], ptr %11, i64 0, i64 0
  %13 = load ptr, ptr %5, align 8, !tbaa !13
  %14 = load i32, ptr %6, align 4, !tbaa !18
  %15 = add nsw i32 %14, 1
  %16 = sext i32 %15 to i64
  %17 = call nsz double @ff_scalarproduct_double_c(ptr noundef %12, ptr noundef %13, i64 noundef %16)
  ret double %17
}