; Function Attrs: nounwind uwtable
define internal double @evaluate_lls(ptr noundef %0, ptr noundef %1, i32 noundef %2) #4 {
  %4 = getelementptr inbounds nuw i8, ptr %0, i64 10368
  %5 = sext i32 %2 to i64
  %6 = getelementptr inbounds [32 x [32 x double]], ptr %4, i64 0, i64 %5
  %7 = add nsw i32 %2, 1
  %8 = sext i32 %7 to i64
  %9 = tail call nsz double @ff_scalarproduct_double_c(ptr noundef nonnull %6, ptr noundef %1, i64 noundef %8) #6
  ret double %9
}